target datalayout = "e-m:e-p270:32:32-p271:32:32-p272:64:64-i64:64-i128:128-f80:128-n8:16:32:64-S128"
target triple = "x86_64-pc-linux-gnu"

%struct._zend_refcounted_h = type { i32, %union.anon.3 }
%union.anon.3 = type { i32 }
%struct._zval_struct = type { %union._zend_value, %union.anon, %union.anon.2 }
%union._zend_value = type { i64 }
%union.anon = type { i32 }
%union.anon.2 = type { i32 }
%struct._zend_string = type { %struct._zend_refcounted_h, i64, i64, [1 x i8] }
%struct._zend_object = type { %struct._zend_refcounted_h, i32, ptr, ptr, ptr, [1 x %struct._zval_struct] }
%struct._zend_object_handlers = type { i32, ptr, ptr, ptr, ptr, ptr, ptr, ptr, ptr, ptr, ptr, ptr, ptr, ptr, ptr, ptr, ptr, ptr, ptr, ptr, ptr, ptr, ptr, ptr, ptr }
%struct._zend_execute_data = type { ptr, ptr, ptr, ptr, %struct._zval_struct, ptr, ptr, ptr, ptr }

@.str.53 = private unnamed_addr constant [12 x i8] c"unserialize\00", align 1

; Function Attrs: nounwind uwtable
define hidden void @zif_unserialize(ptr noundef %0, ptr noundef %1) #0 {
  %3 = alloca ptr, align 8
  %4 = alloca ptr, align 8
  %5 = alloca i1, align 1
  %6 = alloca ptr, align 8
  %7 = alloca ptr, align 8
  %8 = alloca i8, align 1
  %9 = alloca i32, align 4
  %10 = alloca i8, align 1
  %11 = alloca ptr, align 8
  %12 = alloca ptr, align 8
  %13 = alloca i8, align 1
  %14 = alloca i32, align 4
  %15 = alloca ptr, align 8
  %16 = alloca ptr, align 8
  %17 = alloca i32, align 4
  %18 = alloca ptr, align 8
  %19 = alloca ptr, align 8
  %20 = alloca ptr, align 8
  %21 = alloca i1, align 1
  %22 = alloca ptr, align 8
  %23 = alloca ptr, align 8
  %24 = alloca i8, align 1
  %25 = alloca i8, align 1
  %26 = alloca i8, align 1
  %27 = alloca ptr, align 8
  %28 = alloca i1, align 1
  %29 = alloca ptr, align 8
  %30 = alloca ptr, align 8
  %31 = alloca ptr, align 8
  %32 = alloca i8, align 1
  %33 = alloca i32, align 4
  %34 = alloca ptr, align 8
  %35 = alloca ptr, align 8
  %36 = alloca ptr, align 8
  %37 = alloca ptr, align 8
  %38 = alloca i64, align 8
  %39 = alloca ptr, align 8
  %40 = alloca i32, align 4
  %41 = alloca i32, align 4
  %42 = alloca i32, align 4
  %43 = alloca i32, align 4
  %44 = alloca i32, align 4
  %45 = alloca ptr, align 8
  %46 = alloca ptr, align 8
  %47 = alloca i32, align 4
  %48 = alloca ptr, align 8
  %49 = alloca i8, align 1
  %50 = alloca i8, align 1
  %51 = alloca i32, align 4
  store ptr %0, ptr %35, align 8
  store ptr %1, ptr %36, align 8
  store ptr null, ptr %37, align 8
  store ptr null, ptr %39, align 8
  br label %52

52:                                               ; preds = %2
  store i32 0, ptr %40, align 4
  store i32 1, ptr %41, align 4
  store i32 2, ptr %42, align 4
  %53 = load ptr, ptr %35, align 8
  %54 = getelementptr inbounds %struct._zend_execute_data, ptr %53, i32 0, i32 4
  %55 = getelementptr inbounds %struct._zval_struct, ptr %54, i32 0, i32 2
  %56 = load i32, ptr %55, align 4
  store i32 %56, ptr %43, align 4
  store i32 0, ptr %44, align 4
  store ptr null, ptr %46, align 8
  store i32 0, ptr %47, align 4
  store ptr null, ptr %48, align 8
  store i8 0, ptr %49, align 1
  store i8 0, ptr %50, align 1
  store i32 0, ptr %51, align 4
  br label %57

57:                                               ; preds = %52
  %58 = load i32, ptr %43, align 4
  %59 = load i32, ptr %41, align 4
  %60 = icmp ult i32 %58, %59
  %61 = xor i1 %60, true
  %62 = xor i1 %61, true
  %63 = zext i1 %62 to i32
  %64 = sext i32 %63 to i64
  %65 = icmp ne i64 %64, 0
  br i1 %65, label %75, label %66

66:                                               ; preds = %57
  %67 = load i32, ptr %43, align 4
  %68 = load i32, ptr %42, align 4
  %69 = icmp ugt i32 %67, %68
  %70 = xor i1 %69, true
  %71 = xor i1 %70, true
  %72 = zext i1 %71 to i32
  %73 = sext i32 %72 to i64
  %74 = icmp ne i64 %73, 0
  br i1 %74, label %75, label %78

75:                                               ; preds = %66, %57
  %76 = load i32, ptr %41, align 4
  %77 = load i32, ptr %42, align 4
  call void @zend_wrong_parameters_count_error(i32 noundef %76, i32 noundef %77)
  store i32 1, ptr %51, align 4
  br label %348

78:                                               ; preds = %66
  %79 = load ptr, ptr %35, align 8
  %80 = getelementptr inbounds %struct._zval_struct, ptr %79, i64 4
  store ptr %80, ptr %45, align 8
  %81 = load i32, ptr %44, align 4
  %82 = add i32 %81, 1
  store i32 %82, ptr %44, align 4
  %83 = load i32, ptr %44, align 4
  %84 = load i32, ptr %41, align 4
  %85 = icmp ule i32 %83, %84
  br i1 %85, label %91, label %86

86:                                               ; preds = %78
  %87 = load i8, ptr %50, align 1
  %88 = trunc i8 %87 to i1
  %89 = zext i1 %88 to i32
  %90 = icmp eq i32 %89, 1
  br label %91

91:                                               ; preds = %86, %78
  %92 = phi i1 [ true, %78 ], [ %90, %86 ]
  call void @llvm.assume(i1 %92)
  %93 = load i32, ptr %44, align 4
  %94 = load i32, ptr %41, align 4
  %95 = icmp ugt i32 %93, %94
  br i1 %95, label %101, label %96

96:                                               ; preds = %91
  %97 = load i8, ptr %50, align 1
  %98 = trunc i8 %97 to i1
  %99 = zext i1 %98 to i32
  %100 = icmp eq i32 %99, 0
  br label %101

101:                                              ; preds = %96, %91
  %102 = phi i1 [ true, %91 ], [ %100, %96 ]
  call void @llvm.assume(i1 %102)
  %103 = load i8, ptr %50, align 1
  %104 = trunc i8 %103 to i1
  br i1 %104, label %105, label %116

105:                                              ; preds = %101
  %106 = load i32, ptr %44, align 4
  %107 = load i32, ptr %43, align 4
  %108 = icmp ugt i32 %106, %107
  %109 = xor i1 %108, true
  %110 = xor i1 %109, true
  %111 = zext i1 %110 to i32
  %112 = sext i32 %111 to i64
  %113 = icmp ne i64 %112, 0
  br i1 %113, label %114, label %115

114:                                              ; preds = %105
  br label %348

115:                                              ; preds = %105
  br label %116

116:                                              ; preds = %115, %101
  %117 = load ptr, ptr %45, align 8
  %118 = getelementptr inbounds %struct._zval_struct, ptr %117, i32 1
  store ptr %118, ptr %45, align 8
  %119 = load ptr, ptr %45, align 8
  store ptr %119, ptr %46, align 8
  %120 = load ptr, ptr %46, align 8
  %121 = load i32, ptr %44, align 4
  store ptr %120, ptr %29, align 8
  store ptr %37, ptr %30, align 8
  store ptr %38, ptr %31, align 8
  store i8 0, ptr %32, align 1
  store i32 %121, ptr %33, align 4
  %122 = load ptr, ptr %29, align 8
  %123 = load i8, ptr %32, align 1
  %124 = trunc i8 %123 to i1
  %125 = load i32, ptr %33, align 4
  store ptr %122, ptr %11, align 8
  store ptr %34, ptr %12, align 8
  %126 = zext i1 %124 to i8
  store i8 %126, ptr %13, align 1
  store i32 %125, ptr %14, align 4
  %127 = load ptr, ptr %11, align 8
  %128 = load ptr, ptr %12, align 8
  %129 = load i8, ptr %13, align 1
  %130 = trunc i8 %129 to i1
  %131 = load i32, ptr %14, align 4
  store ptr %127, ptr %6, align 8
  store ptr %128, ptr %7, align 8
  %132 = zext i1 %130 to i8
  store i8 %132, ptr %8, align 1
  store i32 %131, ptr %9, align 4
  store i8 0, ptr %10, align 1
  %133 = load ptr, ptr %6, align 8
  store ptr %133, ptr %3, align 8
  %134 = load ptr, ptr %3, align 8
  %135 = getelementptr inbounds %struct._zval_struct, ptr %134, i32 0, i32 1
  %136 = load i8, ptr %135, align 8
  %137 = zext i8 %136 to i32
  %138 = icmp eq i32 %137, 6
  br i1 %138, label %139, label %143

139:                                              ; preds = %116
  %140 = load ptr, ptr %6, align 8
  %141 = load ptr, ptr %140, align 8
  %142 = load ptr, ptr %7, align 8
  store ptr %141, ptr %142, align 8
  br label %168

143:                                              ; preds = %116
  %144 = load i8, ptr %8, align 1
  %145 = trunc i8 %144 to i1
  br i1 %145, label %146, label %155

146:                                              ; preds = %143
  %147 = load ptr, ptr %6, align 8
  store ptr %147, ptr %4, align 8
  %148 = load ptr, ptr %4, align 8
  %149 = getelementptr inbounds %struct._zval_struct, ptr %148, i32 0, i32 1
  %150 = load i8, ptr %149, align 8
  %151 = zext i8 %150 to i32
  %152 = icmp eq i32 %151, 1
  br i1 %152, label %153, label %155

153:                                              ; preds = %146
  %154 = load ptr, ptr %7, align 8
  store ptr null, ptr %154, align 8
  br label %168

155:                                              ; preds = %146, %143
  %156 = load i8, ptr %10, align 1
  %157 = trunc i8 %156 to i1
  br i1 %157, label %158, label %163

158:                                              ; preds = %155
  %159 = load ptr, ptr %6, align 8
  %160 = load ptr, ptr %7, align 8
  %161 = load i32, ptr %9, align 4
  %162 = call zeroext i1 @zend_flf_parse_arg_str_slow(ptr noundef %159, ptr noundef %160, i32 noundef %161) #11
  store i1 %162, ptr %5, align 1
  br label %169

163:                                              ; preds = %155
  %164 = load ptr, ptr %6, align 8
  %165 = load ptr, ptr %7, align 8
  %166 = load i32, ptr %9, align 4
  %167 = call zeroext i1 @zend_parse_arg_str_slow(ptr noundef %164, ptr noundef %165, i32 noundef %166) #11
  store i1 %167, ptr %5, align 1
  br label %169

168:                                              ; preds = %153, %139
  store i1 true, ptr %5, align 1
  br label %169

169:                                              ; preds = %168, %163, %158
  %170 = load i1, ptr %5, align 1
  br i1 %170, label %172, label %171

171:                                              ; preds = %169
  store i1 false, ptr %28, align 1
  br label %191

172:                                              ; preds = %169
  %173 = load i8, ptr %32, align 1
  %174 = trunc i8 %173 to i1
  br i1 %174, label %175, label %182

175:                                              ; preds = %172
  %176 = load ptr, ptr %34, align 8
  %177 = icmp ne ptr %176, null
  %178 = xor i1 %177, true
  br i1 %178, label %179, label %182

179:                                              ; preds = %175
  %180 = load ptr, ptr %30, align 8
  store ptr null, ptr %180, align 8
  %181 = load ptr, ptr %31, align 8
  store i64 0, ptr %181, align 8
  br label %190

182:                                              ; preds = %175, %172
  %183 = load ptr, ptr %34, align 8
  %184 = getelementptr inbounds %struct._zend_string, ptr %183, i32 0, i32 3
  %185 = load ptr, ptr %30, align 8
  store ptr %184, ptr %185, align 8
  %186 = load ptr, ptr %34, align 8
  %187 = getelementptr inbounds %struct._zend_string, ptr %186, i32 0, i32 2
  %188 = load i64, ptr %187, align 8
  %189 = load ptr, ptr %31, align 8
  store i64 %188, ptr %189, align 8
  br label %190

190:                                              ; preds = %182, %179
  store i1 true, ptr %28, align 1
  br label %191

191:                                              ; preds = %190, %171
  %192 = load i1, ptr %28, align 1
  %193 = xor i1 %192, true
  %194 = xor i1 %193, true
  %195 = xor i1 %194, true
  %196 = zext i1 %195 to i32
  %197 = sext i32 %196 to i64
  %198 = icmp ne i64 %197, 0
  br i1 %198, label %199, label %200

199:                                              ; preds = %191
  store i32 4, ptr %47, align 4
  store i32 9, ptr %51, align 4
  br label %348

200:                                              ; preds = %191
  store i8 1, ptr %50, align 1
  %201 = load i32, ptr %44, align 4
  %202 = add i32 %201, 1
  store i32 %202, ptr %44, align 4
  %203 = load i32, ptr %44, align 4
  %204 = load i32, ptr %41, align 4
  %205 = icmp ule i32 %203, %204
  br i1 %205, label %211, label %206

206:                                              ; preds = %200
  %207 = load i8, ptr %50, align 1
  %208 = trunc i8 %207 to i1
  %209 = zext i1 %208 to i32
  %210 = icmp eq i32 %209, 1
  br label %211

211:                                              ; preds = %206, %200
  %212 = phi i1 [ true, %200 ], [ %210, %206 ]
  call void @llvm.assume(i1 %212)
  %213 = load i32, ptr %44, align 4
  %214 = load i32, ptr %41, align 4
  %215 = icmp ugt i32 %213, %214
  br i1 %215, label %221, label %216

216:                                              ; preds = %211
  %217 = load i8, ptr %50, align 1
  %218 = trunc i8 %217 to i1
  %219 = zext i1 %218 to i32
  %220 = icmp eq i32 %219, 0
  br label %221

221:                                              ; preds = %216, %211
  %222 = phi i1 [ true, %211 ], [ %220, %216 ]
  call void @llvm.assume(i1 %222)
  %223 = load i8, ptr %50, align 1
  %224 = trunc i8 %223 to i1
  br i1 %224, label %225, label %236

225:                                              ; preds = %221
  %226 = load i32, ptr %44, align 4
  %227 = load i32, ptr %43, align 4
  %228 = icmp ugt i32 %226, %227
  %229 = xor i1 %228, true
  %230 = xor i1 %229, true
  %231 = zext i1 %230 to i32
  %232 = sext i32 %231 to i64
  %233 = icmp ne i64 %232, 0
  br i1 %233, label %234, label %235

234:                                              ; preds = %225
  br label %348

235:                                              ; preds = %225
  br label %236

236:                                              ; preds = %235, %221
  %237 = load ptr, ptr %45, align 8
  %238 = getelementptr inbounds %struct._zval_struct, ptr %237, i32 1
  store ptr %238, ptr %45, align 8
  %239 = load ptr, ptr %45, align 8
  store ptr %239, ptr %46, align 8
  %240 = load ptr, ptr %46, align 8
  store ptr %240, ptr %22, align 8
  store ptr %39, ptr %23, align 8
  store i8 0, ptr %24, align 1
  store i8 0, ptr %25, align 1
  store i8 0, ptr %26, align 1
  %241 = load ptr, ptr %22, align 8
  store ptr %241, ptr %18, align 8
  %242 = load ptr, ptr %18, align 8
  %243 = getelementptr inbounds %struct._zval_struct, ptr %242, i32 0, i32 1
  %244 = load i8, ptr %243, align 8
  %245 = zext i8 %244 to i32
  %246 = icmp eq i32 %245, 7
  br i1 %246, label %247, label %251

247:                                              ; preds = %236
  %248 = load ptr, ptr %22, align 8
  %249 = load ptr, ptr %248, align 8
  %250 = load ptr, ptr %23, align 8
  store ptr %249, ptr %250, align 8
  br label %329

251:                                              ; preds = %236
  %252 = load i8, ptr %25, align 1
  %253 = trunc i8 %252 to i1
  br i1 %253, label %254, label %315

254:                                              ; preds = %251
  %255 = load ptr, ptr %22, align 8
  store ptr %255, ptr %19, align 8
  %256 = load ptr, ptr %19, align 8
  %257 = getelementptr inbounds %struct._zval_struct, ptr %256, i32 0, i32 1
  %258 = load i8, ptr %257, align 8
  %259 = zext i8 %258 to i32
  %260 = icmp eq i32 %259, 8
  br i1 %260, label %261, label %315

261:                                              ; preds = %254
  %262 = load ptr, ptr %22, align 8
  %263 = load ptr, ptr %262, align 8
  store ptr %263, ptr %27, align 8
  %264 = load i8, ptr %26, align 1
  %265 = trunc i8 %264 to i1
  br i1 %265, label %266, label %306

266:                                              ; preds = %261
  %267 = load ptr, ptr %27, align 8
  %268 = getelementptr inbounds %struct._zend_object, ptr %267, i32 0, i32 4
  %269 = load ptr, ptr %268, align 8
  %270 = icmp ne ptr %269, null
  br i1 %270, label %271, label %306

271:                                              ; preds = %266
  %272 = load ptr, ptr %27, align 8
  %273 = getelementptr inbounds %struct._zend_object, ptr %272, i32 0, i32 4
  %274 = load ptr, ptr %273, align 8
  store ptr %274, ptr %15, align 8
  %275 = load ptr, ptr %15, align 8
  %276 = load i32, ptr %275, align 4
  %277 = icmp ugt i32 %276, 1
  br i1 %277, label %278, label %306

278:                                              ; preds = %271
  %279 = load ptr, ptr %27, align 8
  %280 = getelementptr inbounds %struct._zend_object, ptr %279, i32 0, i32 4
  %281 = load ptr, ptr %280, align 8
  %282 = getelementptr inbounds %struct._zend_refcounted_h, ptr %281, i32 0, i32 1
  %283 = load i32, ptr %282, align 4
  store i32 %283, ptr %17, align 4
  %284 = load i32, ptr %17, align 4
  %285 = and i32 %284, 1008
  %286 = and i32 %285, 64
  %287 = icmp ne i32 %286, 0
  %288 = xor i1 %287, true
  br i1 %288, label %289, label %299

289:                                              ; preds = %278
  %290 = load ptr, ptr %27, align 8
  %291 = getelementptr inbounds %struct._zend_object, ptr %290, i32 0, i32 4
  %292 = load ptr, ptr %291, align 8
  store ptr %292, ptr %16, align 8
  %293 = load ptr, ptr %16, align 8
  %294 = load i32, ptr %293, align 4
  %295 = icmp ugt i32 %294, 0
  call void @llvm.assume(i1 %295)
  %296 = load ptr, ptr %16, align 8
  %297 = load i32, ptr %296, align 4
  %298 = add i32 %297, -1
  store i32 %298, ptr %296, align 4
  br label %299

299:                                              ; preds = %289, %278
  %300 = load ptr, ptr %27, align 8
  %301 = getelementptr inbounds %struct._zend_object, ptr %300, i32 0, i32 4
  %302 = load ptr, ptr %301, align 8
  %303 = call ptr @zend_array_dup(ptr noundef %302) #11
  %304 = load ptr, ptr %27, align 8
  %305 = getelementptr inbounds %struct._zend_object, ptr %304, i32 0, i32 4
  store ptr %303, ptr %305, align 8
  br label %306

306:                                              ; preds = %299, %271, %266, %261
  %307 = load ptr, ptr %27, align 8
  %308 = getelementptr inbounds %struct._zend_object, ptr %307, i32 0, i32 3
  %309 = load ptr, ptr %308, align 8
  %310 = getelementptr inbounds %struct._zend_object_handlers, ptr %309, i32 0, i32 13
  %311 = load ptr, ptr %310, align 8
  %312 = load ptr, ptr %27, align 8
  %313 = call ptr %311(ptr noundef %312) #11
  %314 = load ptr, ptr %23, align 8
  store ptr %313, ptr %314, align 8
  br label %328

315:                                              ; preds = %254, %251
  %316 = load i8, ptr %24, align 1
  %317 = trunc i8 %316 to i1
  br i1 %317, label %318, label %327

318:                                              ; preds = %315
  %319 = load ptr, ptr %22, align 8
  store ptr %319, ptr %20, align 8
  %320 = load ptr, ptr %20, align 8
  %321 = getelementptr inbounds %struct._zval_struct, ptr %320, i32 0, i32 1
  %322 = load i8, ptr %321, align 8
  %323 = zext i8 %322 to i32
  %324 = icmp eq i32 %323, 1
  br i1 %324, label %325, label %327

325:                                              ; preds = %318
  %326 = load ptr, ptr %23, align 8
  store ptr null, ptr %326, align 8
  br label %328

327:                                              ; preds = %318, %315
  store i1 false, ptr %21, align 1
  br label %330

328:                                              ; preds = %325, %306
  br label %329

329:                                              ; preds = %328, %247
  store i1 true, ptr %21, align 1
  br label %330

330:                                              ; preds = %329, %327
  %331 = load i1, ptr %21, align 1
  %332 = xor i1 %331, true
  %333 = xor i1 %332, true
  %334 = xor i1 %333, true
  %335 = zext i1 %334 to i32
  %336 = sext i32 %335 to i64
  %337 = icmp ne i64 %336, 0
  br i1 %337, label %338, label %339

338:                                              ; preds = %330
  store i32 6, ptr %47, align 4
  store i32 9, ptr %51, align 4
  br label %348

339:                                              ; preds = %330
  %340 = load i32, ptr %44, align 4
  %341 = load i32, ptr %42, align 4
  %342 = icmp eq i32 %340, %341
  br i1 %342, label %346, label %343

343:                                              ; preds = %339
  %344 = load i32, ptr %42, align 4
  %345 = icmp eq i32 %344, -1
  br label %346

346:                                              ; preds = %343, %339
  %347 = phi i1 [ true, %339 ], [ %345, %343 ]
  call void @llvm.assume(i1 %347)
  br label %348

348:                                              ; preds = %346, %338, %234, %199, %114, %75
  %349 = load i32, ptr %51, align 4
  %350 = icmp ne i32 %349, 0
  %351 = xor i1 %350, true
  %352 = xor i1 %351, true
  %353 = zext i1 %352 to i32
  %354 = sext i32 %353 to i64
  %355 = icmp ne i64 %354, 0
  br i1 %355, label %356, label %362

356:                                              ; preds = %348
  %357 = load i32, ptr %51, align 4
  %358 = load i32, ptr %44, align 4
  %359 = load ptr, ptr %48, align 8
  %360 = load i32, ptr %47, align 4
  %361 = load ptr, ptr %46, align 8
  call void @zend_wrong_parameter_error(i32 noundef %357, i32 noundef %358, ptr noundef %359, i32 noundef %360, ptr noundef %361)
  br label %368

362:                                              ; preds = %348
  br label %363

363:                                              ; preds = %362
  %364 = load ptr, ptr %36, align 8
  %365 = load ptr, ptr %37, align 8
  %366 = load i64, ptr %38, align 8
  %367 = load ptr, ptr %39, align 8
  call void @php_unserialize_with_options(ptr noundef %364, ptr noundef %365, i64 noundef %366, ptr noundef %367, ptr noundef @.str.53)
  br label %368

368:                                              ; preds = %363, %356
  ret void
}