; Function Attrs: nounwind uwtable
define hidden void @zif_unserialize(ptr noundef %0, ptr noundef %1) local_unnamed_addr #0 {
  %3 = alloca ptr, align 8
  %4 = getelementptr inbounds i8, ptr %0, i64 44
  %5 = load i32, ptr %4, align 4
  %6 = add i32 %5, -3
  %or.cond = icmp ult i32 %6, -2
  br i1 %or.cond, label %7, label %8

7:                                                ; preds = %2
  tail call void @zend_wrong_parameters_count_error(i32 noundef 1, i32 noundef 2) #12
  br label %.thread131

8:                                                ; preds = %2
  %9 = getelementptr inbounds i8, ptr %0, i64 80
  %10 = getelementptr inbounds i8, ptr %0, i64 88
  %11 = load i8, ptr %10, align 8
  %12 = icmp eq i8 %11, 6
  br i1 %12, label %.thread, label %14

.thread:                                          ; preds = %8
  %13 = load ptr, ptr %9, align 8
  store ptr %13, ptr %3, align 8
  br label %16

14:                                               ; preds = %8
  %15 = call zeroext i1 @zend_parse_arg_str_slow(ptr noundef nonnull %9, ptr noundef nonnull %3, i32 noundef 1) #12
  br i1 %15, label %._crit_edge, label %.thread131

._crit_edge:                                      ; preds = %14
  %.pre = load ptr, ptr %3, align 8
  br label %16

16:                                               ; preds = %._crit_edge, %.thread
  %17 = phi ptr [ %.pre, %._crit_edge ], [ %13, %.thread ]
  %18 = getelementptr inbounds i8, ptr %17, i64 16
  %19 = load i64, ptr %18, align 8
  %20 = getelementptr inbounds i8, ptr %17, i64 24
  %21 = icmp eq i32 %5, 1
  br i1 %21, label %.thread144, label %22

22:                                               ; preds = %16
  %23 = getelementptr inbounds i8, ptr %0, i64 96
  %24 = getelementptr inbounds i8, ptr %0, i64 104
  %25 = load i8, ptr %24, align 8
  %.not = icmp eq i8 %25, 7
  br i1 %.not, label %.thread156, label %.thread131

.thread156:                                       ; preds = %22
  %26 = load ptr, ptr %23, align 8
  br label %.thread144

.thread131:                                       ; preds = %22, %14, %7
  %.0143 = phi i32 [ 9, %14 ], [ 1, %7 ], [ 9, %22 ]
  %.0102142 = phi i32 [ 4, %14 ], [ 0, %7 ], [ 6, %22 ]
  %.0103141 = phi ptr [ %9, %14 ], [ null, %7 ], [ %23, %22 ]
  %.0104140 = phi i32 [ 1, %14 ], [ 0, %7 ], [ 2, %22 ]
  call void @zend_wrong_parameter_error(i32 noundef %.0143, i32 noundef %.0104140, ptr noundef null, i32 noundef %.0102142, ptr noundef %.0103141) #12
  br label %27

.thread144:                                       ; preds = %16, %.thread156
  %.2155 = phi ptr [ %26, %.thread156 ], [ null, %16 ]
  call void @php_unserialize_with_options(ptr noundef %1, ptr noundef nonnull %20, i64 noundef %19, ptr noundef %.2155, ptr noundef nonnull @.str.53)
  br label %27

27:                                               ; preds = %.thread144, %.thread131
  ret void
}